target datalayout = "e-m:e-p270:32:32-p271:32:32-p272:64:64-i64:64-i128:128-f80:128-n8:16:32:64-S128"
target triple = "x86_64-pc-linux-gnu"

%struct.Plan = type { i32, i32, double, double, double, i32, i8, i8, i8, i32, ptr, ptr, ptr, ptr, ptr, ptr, ptr }
%struct.AggState = type { %struct.ScanState, ptr, i32, i32, i32, i32, ptr, i32, i32, ptr, ptr, ptr, ptr, ptr, ptr, ptr, ptr, i8, i8, i32, i32, ptr, ptr, ptr, i32, i8, i32, ptr, ptr, ptr, ptr, ptr, ptr, i8, i32, ptr, ptr, ptr, ptr, ptr, ptr, i8, i8, i64, i64, i32, double, i64, i64, i64, i32, ptr, ptr, ptr, ptr }
%struct.ScanState = type { %struct.PlanState, ptr, ptr, ptr }
%struct.PlanState = type { i32, ptr, ptr, ptr, ptr, ptr, ptr, ptr, ptr, ptr, ptr, ptr, ptr, ptr, ptr, ptr, ptr, ptr, i8, ptr, ptr, ptr, ptr, ptr, i8, i8, i8, i8, i8, i8, i8, i8 }
%struct.AggStatePerPhaseData = type { i32, i32, ptr, ptr, ptr, ptr, ptr, ptr, [2 x [2 x ptr]] }
%struct.Sort = type { %struct.Plan, i32, ptr, ptr, ptr, ptr }

@work_mem = external global i32, align 4

; Function Attrs: nounwind uwtable
define internal void @initialize_phase(ptr noundef %0, i32 noundef %1) #0 {
  %3 = alloca ptr, align 8
  %4 = alloca i32, align 4
  %5 = alloca ptr, align 8
  %6 = alloca ptr, align 8
  %7 = alloca ptr, align 8
  store ptr %0, ptr %3, align 8
  store i32 %1, ptr %4, align 4
  %8 = load ptr, ptr %3, align 8
  %9 = getelementptr inbounds nuw %struct.AggState, ptr %8, i32 0, i32 28
  %10 = load ptr, ptr %9, align 8
  %11 = icmp ne ptr %10, null
  br i1 %11, label %12, label %18

12:                                               ; preds = %2
  %13 = load ptr, ptr %3, align 8
  %14 = getelementptr inbounds nuw %struct.AggState, ptr %13, i32 0, i32 28
  %15 = load ptr, ptr %14, align 8
  call void @tuplesort_end(ptr noundef %15)
  %16 = load ptr, ptr %3, align 8
  %17 = getelementptr inbounds nuw %struct.AggState, ptr %16, i32 0, i32 28
  store ptr null, ptr %17, align 8
  br label %18

18:                                               ; preds = %12, %2
  %19 = load i32, ptr %4, align 4
  %20 = icmp sle i32 %19, 1
  br i1 %20, label %21, label %33

21:                                               ; preds = %18
  %22 = load ptr, ptr %3, align 8
  %23 = getelementptr inbounds nuw %struct.AggState, ptr %22, i32 0, i32 29
  %24 = load ptr, ptr %23, align 8
  %25 = icmp ne ptr %24, null
  br i1 %25, label %26, label %32

26:                                               ; preds = %21
  %27 = load ptr, ptr %3, align 8
  %28 = getelementptr inbounds nuw %struct.AggState, ptr %27, i32 0, i32 29
  %29 = load ptr, ptr %28, align 8
  call void @tuplesort_end(ptr noundef %29)
  %30 = load ptr, ptr %3, align 8
  %31 = getelementptr inbounds nuw %struct.AggState, ptr %30, i32 0, i32 29
  store ptr null, ptr %31, align 8
  br label %32

32:                                               ; preds = %26, %21
  br label %44

33:                                               ; preds = %18
  %34 = load ptr, ptr %3, align 8
  %35 = getelementptr inbounds nuw %struct.AggState, ptr %34, i32 0, i32 29
  %36 = load ptr, ptr %35, align 8
  %37 = load ptr, ptr %3, align 8
  %38 = getelementptr inbounds nuw %struct.AggState, ptr %37, i32 0, i32 28
  store ptr %36, ptr %38, align 8
  %39 = load ptr, ptr %3, align 8
  %40 = getelementptr inbounds nuw %struct.AggState, ptr %39, i32 0, i32 29
  store ptr null, ptr %40, align 8
  %41 = load ptr, ptr %3, align 8
  %42 = getelementptr inbounds nuw %struct.AggState, ptr %41, i32 0, i32 28
  %43 = load ptr, ptr %42, align 8
  call void @tuplesort_performsort(ptr noundef %43)
  br label %44

44:                                               ; preds = %33, %32
  %45 = load i32, ptr %4, align 4
  %46 = icmp sgt i32 %45, 0
  br i1 %46, label %47, label %89

47:                                               ; preds = %44
  %48 = load i32, ptr %4, align 4
  %49 = load ptr, ptr %3, align 8
  %50 = getelementptr inbounds nuw %struct.AggState, ptr %49, i32 0, i32 7
  %51 = load i32, ptr %50, align 8
  %52 = sub i32 %51, 1
  %53 = icmp slt i32 %48, %52
  br i1 %53, label %54, label %89

54:                                               ; preds = %47
  call void @llvm.lifetime.start.p0(i64 8, ptr %5) #9
  %55 = load ptr, ptr %3, align 8
  %56 = getelementptr inbounds nuw %struct.AggState, ptr %55, i32 0, i32 27
  %57 = load ptr, ptr %56, align 8
  %58 = load i32, ptr %4, align 4
  %59 = add i32 %58, 1
  %60 = sext i32 %59 to i64
  %61 = getelementptr inbounds %struct.AggStatePerPhaseData, ptr %57, i64 %60
  %62 = getelementptr inbounds nuw %struct.AggStatePerPhaseData, ptr %61, i32 0, i32 6
  %63 = load ptr, ptr %62, align 8
  store ptr %63, ptr %5, align 8
  call void @llvm.lifetime.start.p0(i64 8, ptr %6) #9
  %64 = load ptr, ptr %3, align 8
  %65 = getelementptr inbounds nuw %struct.PlanState, ptr %64, i32 0, i32 9
  %66 = load ptr, ptr %65, align 8
  store ptr %66, ptr %6, align 8
  call void @llvm.lifetime.start.p0(i64 8, ptr %7) #9
  %67 = load ptr, ptr %6, align 8
  %68 = call ptr @ExecGetResultType(ptr noundef %67)
  store ptr %68, ptr %7, align 8
  %69 = load ptr, ptr %7, align 8
  %70 = load ptr, ptr %5, align 8
  %71 = getelementptr inbounds nuw %struct.Sort, ptr %70, i32 0, i32 1
  %72 = load i32, ptr %71, align 8
  %73 = load ptr, ptr %5, align 8
  %74 = getelementptr inbounds nuw %struct.Sort, ptr %73, i32 0, i32 2
  %75 = load ptr, ptr %74, align 8
  %76 = load ptr, ptr %5, align 8
  %77 = getelementptr inbounds nuw %struct.Sort, ptr %76, i32 0, i32 3
  %78 = load ptr, ptr %77, align 8
  %79 = load ptr, ptr %5, align 8
  %80 = getelementptr inbounds nuw %struct.Sort, ptr %79, i32 0, i32 4
  %81 = load ptr, ptr %80, align 8
  %82 = load ptr, ptr %5, align 8
  %83 = getelementptr inbounds nuw %struct.Sort, ptr %82, i32 0, i32 5
  %84 = load ptr, ptr %83, align 8
  %85 = load i32, ptr @work_mem, align 4
  %86 = call ptr @tuplesort_begin_heap(ptr noundef %69, i32 noundef %72, ptr noundef %75, ptr noundef %78, ptr noundef %81, ptr noundef %84, i32 noundef %85, ptr noundef null, i32 noundef 0)
  %87 = load ptr, ptr %3, align 8
  %88 = getelementptr inbounds nuw %struct.AggState, ptr %87, i32 0, i32 29
  store ptr %86, ptr %88, align 8
  call void @llvm.lifetime.end.p0(i64 8, ptr %7) #9
  call void @llvm.lifetime.end.p0(i64 8, ptr %6) #9
  call void @llvm.lifetime.end.p0(i64 8, ptr %5) #9
  br label %89

89:                                               ; preds = %54, %47, %44
  %90 = load i32, ptr %4, align 4
  %91 = load ptr, ptr %3, align 8
  %92 = getelementptr inbounds nuw %struct.AggState, ptr %91, i32 0, i32 8
  store i32 %90, ptr %92, align 4
  %93 = load ptr, ptr %3, align 8
  %94 = getelementptr inbounds nuw %struct.AggState, ptr %93, i32 0, i32 27
  %95 = load ptr, ptr %94, align 8
  %96 = load i32, ptr %4, align 4
  %97 = sext i32 %96 to i64
  %98 = getelementptr inbounds %struct.AggStatePerPhaseData, ptr %95, i64 %97
  %99 = load ptr, ptr %3, align 8
  %100 = getelementptr inbounds nuw %struct.AggState, ptr %99, i32 0, i32 6
  store ptr %98, ptr %100, align 8
  ret void
}