; Function Attrs: nounwind uwtable
define internal fastcc void @initialize_phase(ptr noundef captures(none) initializes((248, 256), (260, 264)) %0, i32 noundef %1) unnamed_addr #2 {
  %3 = getelementptr inbounds nuw i8, ptr %0, i64 392
  %4 = load ptr, ptr %3, align 8
  %.not = icmp eq ptr %4, null
  br i1 %.not, label %6, label %5

5:                                                ; preds = %2
  tail call void @tuplesort_end(ptr noundef nonnull %4) #12
  store ptr null, ptr %3, align 8
  br label %6

6:                                                ; preds = %5, %2
  %7 = icmp slt i32 %1, 2
  %8 = getelementptr inbounds nuw i8, ptr %0, i64 400
  %9 = load ptr, ptr %8, align 8
  br i1 %7, label %10, label %.thread

10:                                               ; preds = %6
  %.not31 = icmp eq ptr %9, null
  br i1 %.not31, label %12, label %11

11:                                               ; preds = %10
  tail call void @tuplesort_end(ptr noundef nonnull %9) #12
  store ptr null, ptr %8, align 8
  br label %12

.thread:                                          ; preds = %6
  store ptr %9, ptr %3, align 8
  store ptr null, ptr %8, align 8
  tail call void @tuplesort_performsort(ptr noundef %9) #12
  br label %14

12:                                               ; preds = %10, %11
  %13 = icmp eq i32 %1, 1
  br i1 %13, label %14, label %42

14:                                               ; preds = %.thread, %12
  %15 = getelementptr inbounds nuw i8, ptr %0, i64 256
  %16 = load i32, ptr %15, align 8
  %17 = add i32 %16, -1
  %18 = icmp slt i32 %1, %17
  br i1 %18, label %19, label %42

19:                                               ; preds = %14
  %20 = getelementptr inbounds nuw i8, ptr %0, i64 384
  %21 = load ptr, ptr %20, align 8
  %22 = add nuw nsw i32 %1, 1
  %23 = zext nneg i32 %22 to i64
  %24 = getelementptr inbounds nuw %struct.AggStatePerPhaseData, ptr %21, i64 %23, i32 6
  %25 = load ptr, ptr %24, align 8
  %26 = getelementptr inbounds nuw i8, ptr %0, i64 72
  %27 = load ptr, ptr %26, align 8
  %28 = tail call ptr @ExecGetResultType(ptr noundef %27) #12
  %29 = getelementptr inbounds nuw i8, ptr %25, i64 104
  %30 = load i32, ptr %29, align 8
  %31 = getelementptr inbounds nuw i8, ptr %25, i64 112
  %32 = load ptr, ptr %31, align 8
  %33 = getelementptr inbounds nuw i8, ptr %25, i64 120
  %34 = load ptr, ptr %33, align 8
  %35 = getelementptr inbounds nuw i8, ptr %25, i64 128
  %36 = load ptr, ptr %35, align 8
  %37 = getelementptr inbounds nuw i8, ptr %25, i64 136
  %38 = load ptr, ptr %37, align 8
  %39 = load i32, ptr @work_mem, align 4
  %40 = tail call ptr @tuplesort_begin_heap(ptr noundef %28, i32 noundef %30, ptr noundef %32, ptr noundef %34, ptr noundef %36, ptr noundef %38, i32 noundef %39, ptr noundef null, i32 noundef 0) #12
  %41 = getelementptr inbounds nuw i8, ptr %0, i64 400
  store ptr %40, ptr %41, align 8
  br label %42

42:                                               ; preds = %19, %14, %12
  %43 = getelementptr inbounds nuw i8, ptr %0, i64 260
  store i32 %1, ptr %43, align 4
  %44 = getelementptr inbounds nuw i8, ptr %0, i64 384
  %45 = load ptr, ptr %44, align 8
  %46 = sext i32 %1 to i64
  %47 = getelementptr inbounds %struct.AggStatePerPhaseData, ptr %45, i64 %46
  %48 = getelementptr inbounds nuw i8, ptr %0, i64 248
  store ptr %47, ptr %48, align 8
  ret void
}